target datalayout = "e-m:e-p270:32:32-p271:32:32-p272:64:64-i64:64-i128:128-f80:128-n8:16:32:64-S128"
target triple = "x86_64-pc-linux-gnu"

%struct.AVCodecParameters = type { i32, i32, i32, ptr, i32, ptr, i32, i32, i64, i32, i32, i32, i32, i32, i32, %struct.AVRational, %struct.AVRational, i32, i32, i32, i32, i32, i32, i32, %struct.AVChannelLayout, i32, i32, i32, i32, i32, i32 }
%struct.AVRational = type { i32, i32 }
%struct.AVChannelLayout = type { i32, i32, %union.anon, ptr }
%union.anon = type { i64 }
%struct.AVStream = type { ptr, i32, i32, ptr, ptr, %struct.AVRational, i64, i64, i64, i32, i32, %struct.AVRational, ptr, %struct.AVRational, %struct.AVPacket, i32, %struct.AVRational, i32 }
%struct.AVPacket = type { ptr, i64, i64, ptr, i32, i32, i32, ptr, i32, i64, i64, ptr, ptr, %struct.AVRational }
%struct.AVChannelCustom = type { i32, [16 x i8], ptr }

@.str.7 = private unnamed_addr constant [18 x i8] c"'chnl' layout %d\0A\00", align 1
@.str.8 = private unnamed_addr constant [40 x i8] c"speaker position %d is not implemented\0A\00", align 1
@.str.9 = private unnamed_addr constant [29 x i8] c"'chnl' with object_count %d\0A\00", align 1

; Function Attrs: alwaysinline nounwind willreturn memory(none) uwtable
define internal i32 @av_popcount_c(i32 noundef %0) #3 {
  %2 = alloca i32, align 4
  store i32 %0, ptr %2, align 4, !tbaa !14
  %3 = load i32, ptr %2, align 4, !tbaa !14
  %4 = lshr i32 %3, 1
  %5 = and i32 %4, 1431655765
  %6 = load i32, ptr %2, align 4, !tbaa !14
  %7 = sub i32 %6, %5
  store i32 %7, ptr %2, align 4, !tbaa !14
  %8 = load i32, ptr %2, align 4, !tbaa !14
  %9 = and i32 %8, 858993459
  %10 = load i32, ptr %2, align 4, !tbaa !14
  %11 = lshr i32 %10, 2
  %12 = and i32 %11, 858993459
  %13 = add i32 %9, %12
  store i32 %13, ptr %2, align 4, !tbaa !14
  %14 = load i32, ptr %2, align 4, !tbaa !14
  %15 = load i32, ptr %2, align 4, !tbaa !14
  %16 = lshr i32 %15, 4
  %17 = add i32 %14, %16
  %18 = and i32 %17, 252645135
  store i32 %18, ptr %2, align 4, !tbaa !14
  %19 = load i32, ptr %2, align 4, !tbaa !14
  %20 = lshr i32 %19, 8
  %21 = load i32, ptr %2, align 4, !tbaa !14
  %22 = add i32 %21, %20
  store i32 %22, ptr %2, align 4, !tbaa !14
  %23 = load i32, ptr %2, align 4, !tbaa !14
  %24 = load i32, ptr %2, align 4, !tbaa !14
  %25 = lshr i32 %24, 16
  %26 = add i32 %23, %25
  %27 = and i32 %26, 63
  ret i32 %27
}

; Function Attrs: alwaysinline nounwind willreturn memory(none) uwtable
define internal i32 @av_popcount64_c(i64 noundef %0) #3 {
  %2 = alloca i64, align 8
  store i64 %0, ptr %2, align 8, !tbaa !46
  %3 = load i64, ptr %2, align 8, !tbaa !46
  %4 = trunc i64 %3 to i32
  %5 = call i32 @av_popcount_c(i32 noundef %4) #5
  %6 = load i64, ptr %2, align 8, !tbaa !46
  %7 = lshr i64 %6, 32
  %8 = trunc i64 %7 to i32
  %9 = call i32 @av_popcount_c(i32 noundef %8) #5
  %10 = add nsw i32 %5, %9
  ret i32 %10
}

; Function Attrs: nounwind uwtable
define i32 @ff_mov_get_channel_layout_from_config(i32 noundef %0, ptr noundef %1, i64 noundef %2) #0 {
  %4 = alloca i32, align 4
  %5 = alloca i32, align 4
  %6 = alloca ptr, align 8
  %7 = alloca i64, align 8
  %8 = alloca i32, align 4
  %9 = alloca i32, align 4
  %10 = alloca i32, align 4
  store i32 %0, ptr %5, align 4, !tbaa !14
  store ptr %1, ptr %6, align 8, !tbaa !34
  store i64 %2, ptr %7, align 8, !tbaa !46
  %11 = load i32, ptr %5, align 4, !tbaa !14
  %12 = icmp sgt i32 %11, 0
  br i1 %12, label %13, label %42

13:                                               ; preds = %3
  call void @llvm.lifetime.start.p0(i64 4, ptr %8) #4
  call void @llvm.lifetime.start.p0(i64 4, ptr %9) #4
  %14 = load i64, ptr %7, align 8, !tbaa !46
  %15 = call i32 @av_popcount64_c(i64 noundef %14) #5
  store i32 %15, ptr %9, align 4, !tbaa !14
  %16 = load ptr, ptr %6, align 8, !tbaa !34
  %17 = getelementptr inbounds nuw %struct.AVChannelLayout, ptr %16, i32 0, i32 1
  %18 = load i32, ptr %17, align 4, !tbaa !38
  %19 = icmp sle i32 %18, 0
  br i1 %19, label %27, label %20

20:                                               ; preds = %13
  %21 = load ptr, ptr %6, align 8, !tbaa !34
  %22 = getelementptr inbounds nuw %struct.AVChannelLayout, ptr %21, i32 0, i32 1
  %23 = load i32, ptr %22, align 4, !tbaa !38
  %24 = load i32, ptr %9, align 4, !tbaa !14
  %25 = sub nsw i32 65535, %24
  %26 = icmp sgt i32 %23, %25
  br i1 %26, label %27, label %28

27:                                               ; preds = %20, %13
  store i32 -1094995529, ptr %4, align 4
  store i32 1, ptr %10, align 4
  br label %41

28:                                               ; preds = %20
  %29 = load i32, ptr %5, align 4, !tbaa !14
  %30 = shl i32 %29, 16
  %31 = load ptr, ptr %6, align 8, !tbaa !34
  %32 = getelementptr inbounds nuw %struct.AVChannelLayout, ptr %31, i32 0, i32 1
  %33 = load i32, ptr %32, align 4, !tbaa !38
  %34 = load i32, ptr %9, align 4, !tbaa !14
  %35 = add nsw i32 %33, %34
  %36 = or i32 %30, %35
  store i32 %36, ptr %8, align 4, !tbaa !14
  %37 = load ptr, ptr %6, align 8, !tbaa !34
  %38 = load i32, ptr %8, align 4, !tbaa !14
  %39 = load i64, ptr %7, align 8, !tbaa !46
  %40 = call i32 @mov_get_channel_layout(ptr noundef %37, i32 noundef %38, i64 noundef %39, ptr noundef @iso_ch_layout_map)
  store i32 %40, ptr %4, align 4
  store i32 1, ptr %10, align 4
  br label %41

41:                                               ; preds = %28, %27
  call void @llvm.lifetime.end.p0(i64 4, ptr %9) #4
  call void @llvm.lifetime.end.p0(i64 4, ptr %8) #4
  br label %43

42:                                               ; preds = %3
  store i32 1, ptr %4, align 4
  br label %43

43:                                               ; preds = %42, %41
  %44 = load i32, ptr %4, align 4
  ret i32 %44
}

; Function Attrs: nounwind uwtable
define i32 @ff_mov_read_chnl(ptr noundef %0, ptr noundef %1, ptr noundef %2) #0 {
  %4 = alloca i32, align 4
  %5 = alloca ptr, align 8
  %6 = alloca ptr, align 8
  %7 = alloca ptr, align 8
  %8 = alloca i32, align 4
  %9 = alloca i32, align 4
  %10 = alloca i32, align 4
  %11 = alloca ptr, align 8
  %12 = alloca i32, align 4
  %13 = alloca i32, align 4
  %14 = alloca i32, align 4
  %15 = alloca i32, align 4
  %16 = alloca i32, align 4
  %17 = alloca i64, align 8
  %18 = alloca i32, align 4
  store ptr %0, ptr %5, align 8, !tbaa !40
  store ptr %1, ptr %6, align 8, !tbaa !42
  store ptr %2, ptr %7, align 8, !tbaa !44
  call void @llvm.lifetime.start.p0(i64 4, ptr %8) #4
  %19 = load ptr, ptr %6, align 8, !tbaa !42
  %20 = call i32 @avio_r8(ptr noundef %19)
  store i32 %20, ptr %8, align 4, !tbaa !14
  call void @llvm.lifetime.start.p0(i64 4, ptr %9) #4
  %21 = load i32, ptr %8, align 4, !tbaa !14
  %22 = and i32 %21, 1
  %23 = icmp ne i32 %22, 0
  br i1 %23, label %24, label %122

24:                                               ; preds = %3
  call void @llvm.lifetime.start.p0(i64 4, ptr %10) #4
  %25 = load ptr, ptr %6, align 8, !tbaa !42
  %26 = call i32 @avio_r8(ptr noundef %25)
  store i32 %26, ptr %10, align 4, !tbaa !14
  %27 = load ptr, ptr %5, align 8, !tbaa !40
  %28 = load i32, ptr %10, align 4, !tbaa !14
  call void (ptr, i32, ptr, ...) @av_log(ptr noundef %27, i32 noundef 56, ptr noundef @.str.7, i32 noundef %28)
  %29 = load i32, ptr %10, align 4, !tbaa !14
  %30 = icmp ne i32 %29, 0
  br i1 %30, label %100, label %31

31:                                               ; preds = %24
  call void @llvm.lifetime.start.p0(i64 8, ptr %11) #4
  %32 = load ptr, ptr %7, align 8, !tbaa !44
  %33 = getelementptr inbounds nuw %struct.AVStream, ptr %32, i32 0, i32 3
  %34 = load ptr, ptr %33, align 8, !tbaa !47
  %35 = getelementptr inbounds nuw %struct.AVCodecParameters, ptr %34, i32 0, i32 24
  store ptr %35, ptr %11, align 8, !tbaa !34
  call void @llvm.lifetime.start.p0(i64 4, ptr %12) #4
  %36 = load ptr, ptr %11, align 8, !tbaa !34
  %37 = getelementptr inbounds nuw %struct.AVChannelLayout, ptr %36, i32 0, i32 1
  %38 = load i32, ptr %37, align 4, !tbaa !38
  store i32 %38, ptr %12, align 4, !tbaa !14
  %39 = load ptr, ptr %11, align 8, !tbaa !34
  call void @av_channel_layout_uninit(ptr noundef %39)
  %40 = load ptr, ptr %11, align 8, !tbaa !34
  %41 = load i32, ptr %12, align 4, !tbaa !14
  %42 = call i32 @av_channel_layout_custom_init(ptr noundef %40, i32 noundef %41)
  store i32 %42, ptr %9, align 4, !tbaa !14
  %43 = load i32, ptr %9, align 4, !tbaa !14
  %44 = icmp slt i32 %43, 0
  br i1 %44, label %45, label %47

45:                                               ; preds = %31
  %46 = load i32, ptr %9, align 4, !tbaa !14
  store i32 %46, ptr %4, align 4
  store i32 1, ptr %13, align 4
  br label %97

47:                                               ; preds = %31
  call void @llvm.lifetime.start.p0(i64 4, ptr %14) #4
  store i32 0, ptr %14, align 4, !tbaa !14
  br label %48

48:                                               ; preds = %86, %47
  %49 = load i32, ptr %14, align 4, !tbaa !14
  %50 = load i32, ptr %12, align 4, !tbaa !14
  %51 = icmp slt i32 %49, %50
  br i1 %51, label %53, label %52

52:                                               ; preds = %48
  store i32 2, ptr %13, align 4
  call void @llvm.lifetime.end.p0(i64 4, ptr %14) #4
  br label %89

53:                                               ; preds = %48
  call void @llvm.lifetime.start.p0(i64 4, ptr %15) #4
  %54 = load ptr, ptr %6, align 8, !tbaa !42
  %55 = call i32 @avio_r8(ptr noundef %54)
  store i32 %55, ptr %15, align 4, !tbaa !14
  call void @llvm.lifetime.start.p0(i64 4, ptr %16) #4
  %56 = load i32, ptr %15, align 4, !tbaa !14
  %57 = icmp eq i32 %56, 126
  br i1 %57, label %58, label %61

58:                                               ; preds = %53
  %59 = load ptr, ptr %6, align 8, !tbaa !42
  %60 = call i64 @avio_skip(ptr noundef %59, i64 noundef 3)
  br label %61

61:                                               ; preds = %58, %53
  %62 = load i32, ptr %15, align 4, !tbaa !14
  %63 = sext i32 %62 to i64
  %64 = icmp uge i64 %63, 43
  br i1 %64, label %65, label %66

65:                                               ; preds = %61
  store i32 -1, ptr %16, align 4, !tbaa !14
  br label %71

66:                                               ; preds = %61
  %67 = load i32, ptr %15, align 4, !tbaa !14
  %68 = sext i32 %67 to i64
  %69 = getelementptr inbounds [43 x i32], ptr @iso_channel_position, i64 0, i64 %68
  %70 = load i32, ptr %69, align 4, !tbaa !14
  store i32 %70, ptr %16, align 4, !tbaa !14
  br label %71

71:                                               ; preds = %66, %65
  %72 = load i32, ptr %16, align 4, !tbaa !14
  %73 = icmp eq i32 %72, -1
  br i1 %73, label %74, label %77

74:                                               ; preds = %71
  %75 = load ptr, ptr %5, align 8, !tbaa !40
  %76 = load i32, ptr %15, align 4, !tbaa !14
  call void (ptr, i32, ptr, ...) @av_log(ptr noundef %75, i32 noundef 24, ptr noundef @.str.8, i32 noundef %76)
  store i32 768, ptr %16, align 4, !tbaa !14
  br label %77

77:                                               ; preds = %74, %71
  %78 = load i32, ptr %16, align 4, !tbaa !14
  %79 = load ptr, ptr %11, align 8, !tbaa !34
  %80 = getelementptr inbounds nuw %struct.AVChannelLayout, ptr %79, i32 0, i32 2
  %81 = load ptr, ptr %80, align 8, !tbaa !31
  %82 = load i32, ptr %14, align 4, !tbaa !14
  %83 = sext i32 %82 to i64
  %84 = getelementptr inbounds %struct.AVChannelCustom, ptr %81, i64 %83
  %85 = getelementptr inbounds nuw %struct.AVChannelCustom, ptr %84, i32 0, i32 0
  store i32 %78, ptr %85, align 8, !tbaa !65
  call void @llvm.lifetime.end.p0(i64 4, ptr %16) #4
  call void @llvm.lifetime.end.p0(i64 4, ptr %15) #4
  br label %86

86:                                               ; preds = %77
  %87 = load i32, ptr %14, align 4, !tbaa !14
  %88 = add nsw i32 %87, 1
  store i32 %88, ptr %14, align 4, !tbaa !14
  br label %48, !llvm.loop !73

89:                                               ; preds = %52
  %90 = load ptr, ptr %11, align 8, !tbaa !34
  %91 = call i32 @av_channel_layout_retype(ptr noundef %90, i32 noundef 0, i32 noundef 2)
  store i32 %91, ptr %9, align 4, !tbaa !14
  %92 = load i32, ptr %9, align 4, !tbaa !14
  %93 = icmp slt i32 %92, 0
  br i1 %93, label %94, label %96

94:                                               ; preds = %89
  %95 = load i32, ptr %9, align 4, !tbaa !14
  store i32 %95, ptr %4, align 4
  store i32 1, ptr %13, align 4
  br label %97

96:                                               ; preds = %89
  store i32 0, ptr %13, align 4
  br label %97

97:                                               ; preds = %96, %94, %45
  call void @llvm.lifetime.end.p0(i64 4, ptr %12) #4
  call void @llvm.lifetime.end.p0(i64 8, ptr %11) #4
  %98 = load i32, ptr %13, align 4
  switch i32 %98, label %119 [
    i32 0, label %99
  ]

99:                                               ; preds = %97
  br label %118

100:                                              ; preds = %24
  call void @llvm.lifetime.start.p0(i64 8, ptr %17) #4
  %101 = load ptr, ptr %6, align 8, !tbaa !42
  %102 = call i64 @avio_rb64(ptr noundef %101)
  store i64 %102, ptr %17, align 8, !tbaa !46
  %103 = load i32, ptr %10, align 4, !tbaa !14
  %104 = load ptr, ptr %7, align 8, !tbaa !44
  %105 = getelementptr inbounds nuw %struct.AVStream, ptr %104, i32 0, i32 3
  %106 = load ptr, ptr %105, align 8, !tbaa !47
  %107 = getelementptr inbounds nuw %struct.AVCodecParameters, ptr %106, i32 0, i32 24
  %108 = load i64, ptr %17, align 8, !tbaa !46
  %109 = call i32 @ff_mov_get_channel_layout_from_config(i32 noundef %103, ptr noundef %107, i64 noundef %108)
  store i32 %109, ptr %9, align 4, !tbaa !14
  %110 = load i32, ptr %9, align 4, !tbaa !14
  %111 = icmp slt i32 %110, 0
  br i1 %111, label %112, label %114

112:                                              ; preds = %100
  %113 = load i32, ptr %9, align 4, !tbaa !14
  store i32 %113, ptr %4, align 4
  store i32 1, ptr %13, align 4
  br label %115

114:                                              ; preds = %100
  store i32 0, ptr %13, align 4
  br label %115

115:                                              ; preds = %114, %112
  call void @llvm.lifetime.end.p0(i64 8, ptr %17) #4
  %116 = load i32, ptr %13, align 4
  switch i32 %116, label %119 [
    i32 0, label %117
  ]

117:                                              ; preds = %115
  br label %118

118:                                              ; preds = %117, %99
  store i32 0, ptr %13, align 4
  br label %119

119:                                              ; preds = %118, %115, %97
  call void @llvm.lifetime.end.p0(i64 4, ptr %10) #4
  %120 = load i32, ptr %13, align 4
  switch i32 %120, label %132 [
    i32 0, label %121
  ]

121:                                              ; preds = %119
  br label %122

122:                                              ; preds = %121, %3
  %123 = load i32, ptr %8, align 4, !tbaa !14
  %124 = and i32 %123, 2
  %125 = icmp ne i32 %124, 0
  br i1 %125, label %126, label %131

126:                                              ; preds = %122
  call void @llvm.lifetime.start.p0(i64 4, ptr %18) #4
  %127 = load ptr, ptr %6, align 8, !tbaa !42
  %128 = call i32 @avio_r8(ptr noundef %127)
  store i32 %128, ptr %18, align 4, !tbaa !14
  %129 = load ptr, ptr %5, align 8, !tbaa !40
  %130 = load i32, ptr %18, align 4, !tbaa !14
  call void (ptr, i32, ptr, ...) @av_log(ptr noundef %129, i32 noundef 56, ptr noundef @.str.9, i32 noundef %130)
  call void @llvm.lifetime.end.p0(i64 4, ptr %18) #4
  br label %131

131:                                              ; preds = %126, %122
  store i32 0, ptr %4, align 4
  store i32 1, ptr %13, align 4
  br label %132

132:                                              ; preds = %131, %119
  call void @llvm.lifetime.end.p0(i64 4, ptr %9) #4
  call void @llvm.lifetime.end.p0(i64 4, ptr %8) #4
  %133 = load i32, ptr %4, align 4
  ret i32 %133
}