; Function Attrs: nounwind uwtable
define range(i32 -2147483648, 1) i32 @ff_mov_read_chnl(ptr noundef %0, ptr noundef %1, ptr noundef readonly captures(none) %2) local_unnamed_addr #0 {
  %4 = tail call i32 @avio_r8(ptr noundef %1) #3
  %5 = and i32 %4, 1
  %.not = icmp eq i32 %5, 0
  br i1 %.not, label %ff_mov_get_channel_layout_from_config.exit.thread, label %6

6:                                                ; preds = %3
  %7 = tail call i32 @avio_r8(ptr noundef %1) #3
  tail call void (ptr, i32, ptr, ...) @av_log(ptr noundef %0, i32 noundef 56, ptr noundef nonnull @.str.7, i32 noundef %7) #3
  %.not55 = icmp eq i32 %7, 0
  br i1 %.not55, label %8, label %35

8:                                                ; preds = %6
  %9 = getelementptr inbounds nuw i8, ptr %2, i64 16
  %10 = load ptr, ptr %9, align 8, !tbaa !31
  %11 = getelementptr inbounds nuw i8, ptr %10, i64 128
  %12 = getelementptr inbounds nuw i8, ptr %10, i64 132
  %13 = load i32, ptr %12, align 4, !tbaa !21
  tail call void @av_channel_layout_uninit(ptr noundef nonnull %11) #3
  %14 = tail call i32 @av_channel_layout_custom_init(ptr noundef nonnull %11, i32 noundef %13) #3
  %15 = icmp slt i32 %14, 0
  br i1 %15, label %.thread67, label %.preheader

.preheader:                                       ; preds = %8
  %16 = icmp sgt i32 %13, 0
  br i1 %16, label %.lr.ph, label %._crit_edge

.lr.ph:                                           ; preds = %.preheader
  %17 = getelementptr inbounds nuw i8, ptr %10, i64 136
  %wide.trip.count = zext nneg i32 %13 to i64
  br label %18

18:                                               ; preds = %.lr.ph, %30
  %indvars.iv = phi i64 [ 0, %.lr.ph ], [ %indvars.iv.next, %30 ]
  %19 = tail call i32 @avio_r8(ptr noundef %1) #3
  %20 = icmp eq i32 %19, 126
  br i1 %20, label %.thread, label %22

.thread:                                          ; preds = %18
  %21 = tail call i64 @avio_skip(ptr noundef %1, i64 noundef 3) #3
  br label %.thread58

22:                                               ; preds = %18
  %23 = icmp ugt i32 %19, 42
  br i1 %23, label %.thread58, label %24

24:                                               ; preds = %22
  %25 = zext nneg i32 %19 to i64
  %26 = getelementptr inbounds nuw [43 x i32], ptr @iso_channel_position, i64 0, i64 %25
  %27 = load i32, ptr %26, align 4, !tbaa !20
  %28 = add nsw i32 %19, -32
  %29 = icmp ult i32 %28, 11
  br i1 %29, label %.thread58, label %30

.thread58:                                        ; preds = %.thread, %22, %24
  tail call void (ptr, i32, ptr, ...) @av_log(ptr noundef %0, i32 noundef 24, ptr noundef nonnull @.str.8, i32 noundef %19) #3
  br label %30

30:                                               ; preds = %.thread58, %24
  %.146 = phi i32 [ 768, %.thread58 ], [ %27, %24 ]
  %31 = load ptr, ptr %17, align 8, !tbaa !23
  %32 = getelementptr inbounds nuw %struct.AVChannelCustom, ptr %31, i64 %indvars.iv
  store i32 %.146, ptr %32, align 8, !tbaa !52
  %indvars.iv.next = add nuw nsw i64 %indvars.iv, 1
  %exitcond.not = icmp eq i64 %indvars.iv.next, %wide.trip.count
  br i1 %exitcond.not, label %._crit_edge, label %18, !llvm.loop !59

._crit_edge:                                      ; preds = %30, %.preheader
  %33 = tail call i32 @av_channel_layout_retype(ptr noundef nonnull %11, i32 noundef 0, i32 noundef 2) #3
  %34 = icmp sgt i32 %33, -1
  br i1 %34, label %ff_mov_get_channel_layout_from_config.exit.thread, label %.thread67

35:                                               ; preds = %6
  %36 = tail call i64 @avio_rb64(ptr noundef %1) #3
  %37 = getelementptr inbounds nuw i8, ptr %2, i64 16
  %38 = load ptr, ptr %37, align 8, !tbaa !31
  %39 = getelementptr inbounds nuw i8, ptr %38, i64 128
  %40 = icmp sgt i32 %7, 0
  br i1 %40, label %41, label %ff_mov_get_channel_layout_from_config.exit.thread

41:                                               ; preds = %35
  %42 = trunc i64 %36 to i32
  %43 = lshr i32 %42, 1
  %44 = and i32 %43, 1431655765
  %45 = sub i32 %42, %44
  %46 = and i32 %45, 858993459
  %47 = lshr i32 %45, 2
  %48 = and i32 %47, 858993459
  %49 = add nuw nsw i32 %48, %46
  %50 = lshr i32 %49, 4
  %51 = add nuw nsw i32 %50, %49
  %52 = and i32 %51, 252645135
  %53 = lshr i32 %52, 8
  %54 = add nuw nsw i32 %53, %52
  %55 = lshr i32 %54, 16
  %56 = add nuw nsw i32 %55, %54
  %57 = and i32 %56, 63
  %58 = lshr i64 %36, 32
  %59 = trunc nuw i64 %58 to i32
  %60 = lshr i32 %59, 1
  %61 = and i32 %60, 1431655765
  %62 = sub i32 %59, %61
  %63 = and i32 %62, 858993459
  %64 = lshr i32 %62, 2
  %65 = and i32 %64, 858993459
  %66 = add nuw nsw i32 %65, %63
  %67 = lshr i32 %66, 4
  %68 = add nuw nsw i32 %67, %66
  %69 = and i32 %68, 252645135
  %70 = lshr i32 %69, 8
  %71 = add nuw nsw i32 %70, %69
  %72 = lshr i32 %71, 16
  %73 = add nuw nsw i32 %72, %71
  %74 = and i32 %73, 63
  %75 = add nuw nsw i32 %74, %57
  %76 = getelementptr inbounds nuw i8, ptr %38, i64 132
  %77 = load i32, ptr %76, align 4, !tbaa !21
  %78 = icmp slt i32 %77, 1
  %79 = xor i32 %75, 65535
  %80 = icmp sgt i32 %77, %79
  %or.cond.i = select i1 %78, i1 true, i1 %80
  br i1 %or.cond.i, label %.thread67, label %ff_mov_get_channel_layout_from_config.exit

ff_mov_get_channel_layout_from_config.exit:       ; preds = %41
  %81 = shl i32 %7, 16
  %82 = add nuw nsw i32 %77, %75
  %83 = or i32 %82, %81
  %84 = tail call fastcc i32 @mov_get_channel_layout(ptr noundef nonnull %39, i32 noundef %83, i64 noundef %36, ptr noundef nonnull @iso_ch_layout_map)
  %85 = icmp sgt i32 %84, -1
  br i1 %85, label %ff_mov_get_channel_layout_from_config.exit.thread, label %.thread67

ff_mov_get_channel_layout_from_config.exit.thread: ; preds = %35, %ff_mov_get_channel_layout_from_config.exit, %._crit_edge, %3
  %86 = and i32 %4, 2
  %.not56 = icmp eq i32 %86, 0
  br i1 %.not56, label %.thread67, label %87

87:                                               ; preds = %ff_mov_get_channel_layout_from_config.exit.thread
  %88 = tail call i32 @avio_r8(ptr noundef %1) #3
  tail call void (ptr, i32, ptr, ...) @av_log(ptr noundef %0, i32 noundef 56, ptr noundef nonnull @.str.9, i32 noundef %88) #3
  br label %.thread67

.thread67:                                        ; preds = %41, %8, %._crit_edge, %ff_mov_get_channel_layout_from_config.exit, %ff_mov_get_channel_layout_from_config.exit.thread, %87
  %.4 = phi i32 [ 0, %87 ], [ 0, %ff_mov_get_channel_layout_from_config.exit.thread ], [ %33, %._crit_edge ], [ %84, %ff_mov_get_channel_layout_from_config.exit ], [ %14, %8 ], [ -1094995529, %41 ]
  ret i32 %.4
}